; ModuleID = 'source-C-CXX/19/776.cpp'
source_filename = "source-C-CXX/19/776.cpp"
target datalayout = "e-m:e-p270:32:32-p271:32:32-p272:64:64-i64:64-f80:128-n8:16:32:64-S128"
target triple = "x86_64-pc-linux-gnu"

%"class.std::ios_base::Init" = type { i8 }
%"class.std::basic_istream" = type { i32 (...)**, i64, %"class.std::basic_ios" }
%"class.std::basic_ios" = type { %"class.std::ios_base", %"class.std::basic_ostream"*, i8, i8, %"class.std::basic_streambuf"*, %"class.std::ctype"*, %"class.std::num_put"*, %"class.std::num_get"* }
%"class.std::ios_base" = type { i32 (...)**, i64, i64, i32, i32, i32, %"struct.std::ios_base::_Callback_list"*, %"struct.std::ios_base::_Words", [8 x %"struct.std::ios_base::_Words"], i32, %"struct.std::ios_base::_Words"*, %"class.std::locale" }
%"struct.std::ios_base::_Callback_list" = type { %"struct.std::ios_base::_Callback_list"*, void (i32, %"class.std::ios_base"*, i32)*, i32, i32 }
%"struct.std::ios_base::_Words" = type { i8*, i64 }
%"class.std::locale" = type { %"class.std::locale::_Impl"* }
%"class.std::locale::_Impl" = type { i32, %"class.std::locale::facet"**, i64, %"class.std::locale::facet"**, i8** }
%"class.std::locale::facet" = type <{ i32 (...)**, i32, [4 x i8] }>
%"class.std::basic_ostream" = type { i32 (...)**, %"class.std::basic_ios" }
%"class.std::basic_streambuf" = type { i32 (...)**, i8*, i8*, i8*, i8*, i8*, i8*, %"class.std::locale" }
%"class.std::ctype" = type <{ %"class.std::locale::facet.base", [4 x i8], %struct.__locale_struct*, i8, [7 x i8], i32*, i32*, i16*, i8, [256 x i8], [256 x i8], i8, [6 x i8] }>
%"class.std::locale::facet.base" = type <{ i32 (...)**, i32 }>
%struct.__locale_struct = type { [13 x %struct.__locale_data*], i16*, i32*, i32*, [13 x i8*] }
%struct.__locale_data = type opaque
%"class.std::num_put" = type { %"class.std::locale::facet.base", [4 x i8] }
%"class.std::num_get" = type { %"class.std::locale::facet.base", [4 x i8] }

@_ZStL8__ioinit = internal global %"class.std::ios_base::Init" zeroinitializer, align 1
@__dso_handle = external hidden global i8
@_ZSt3cin = external global %"class.std::basic_istream", align 8
@_ZSt4cout = external global %"class.std::basic_ostream", align 8
@llvm.global_ctors = appending global [1 x { i32, void ()*, i8* }] [{ i32, void ()*, i8* } { i32 65535, void ()* @_GLOBAL__sub_I_776.cpp, i8* null }]

declare void @_ZNSt8ios_base4InitC1Ev(%"class.std::ios_base::Init"* nonnull align 1 dereferenceable(1)) unnamed_addr #0

; Function Attrs: nounwind
declare void @_ZNSt8ios_base4InitD1Ev(%"class.std::ios_base::Init"* nonnull align 1 dereferenceable(1)) unnamed_addr #1

; Function Attrs: nofree nounwind
declare i32 @__cxa_atexit(void (i8*)*, i8*, i8*) local_unnamed_addr #2

; Function Attrs: mustprogress norecurse sspstrong uwtable
define dso_local i32 @main() local_unnamed_addr #3 {
  %1 = alloca [1000 x [15 x i8]], align 16
  %2 = alloca [1000 x [3 x i8]], align 16
  %3 = getelementptr inbounds [1000 x [15 x i8]], [1000 x [15 x i8]]* %1, i64 0, i64 0, i64 0
  call void @llvm.lifetime.start.p0i8(i64 15000, i8* nonnull %3) #9
  %4 = getelementptr inbounds [1000 x [3 x i8]], [1000 x [3 x i8]]* %2, i64 0, i64 0, i64 0
  call void @llvm.lifetime.start.p0i8(i64 3000, i8* nonnull %4) #9
  br label %5

5:                                                ; preds = %18, %0
  %6 = phi i64 [ %20, %18 ], [ 0, %0 ]
  %7 = getelementptr inbounds [1000 x [15 x i8]], [1000 x [15 x i8]]* %1, i64 0, i64 %6, i64 0
  call void @_ZSt17__istream_extractRSiPcl(%"class.std::basic_istream"* nonnull align 8 dereferenceable(16) @_ZSt3cin, i8* nonnull %7, i64 9223372036854775807)
  %8 = load i8*, i8** bitcast (%"class.std::basic_istream"* @_ZSt3cin to i8**), align 8, !tbaa !5
  %9 = getelementptr i8, i8* %8, i64 -24
  %10 = bitcast i8* %9 to i64*
  %11 = load i64, i64* %10, align 8
  %12 = add nsw i64 %11, 32
  %13 = getelementptr inbounds i8, i8* bitcast (%"class.std::basic_istream"* @_ZSt3cin to i8*), i64 %12
  %14 = bitcast i8* %13 to i32*
  %15 = load i32, i32* %14, align 8, !tbaa !8
  %16 = and i32 %15, 5
  %17 = icmp eq i32 %16, 0
  br i1 %17, label %18, label %21

18:                                               ; preds = %5
  %19 = getelementptr inbounds [1000 x [3 x i8]], [1000 x [3 x i8]]* %2, i64 0, i64 %6, i64 0
  call void @_ZSt17__istream_extractRSiPcl(%"class.std::basic_istream"* nonnull align 8 dereferenceable(16) @_ZSt3cin, i8* nonnull %19, i64 9223372036854775807)
  call void @_Z5charuPcS_(i8* nonnull %7, i8* nonnull %19)
  %20 = add nuw i64 %6, 1
  br label %5, !llvm.loop !18

21:                                               ; preds = %5
  call void @llvm.lifetime.end.p0i8(i64 3000, i8* nonnull %4) #9
  call void @llvm.lifetime.end.p0i8(i64 15000, i8* nonnull %3) #9
  ret i32 0
}

; Function Attrs: argmemonly mustprogress nofree nosync nounwind willreturn
declare void @llvm.lifetime.start.p0i8(i64 immarg, i8* nocapture) #4

; Function Attrs: mustprogress sspstrong uwtable
define dso_local void @_Z5charuPcS_(i8* nocapture readonly %0, i8* %1) local_unnamed_addr #5 {
  %3 = alloca i8, align 1
  %4 = alloca i8, align 1
  %5 = load i8, i8* %0, align 1, !tbaa !20
  %6 = icmp eq i8 %5, 0
  br i1 %6, label %14, label %7

7:                                                ; preds = %2
  %8 = getelementptr inbounds i8, i8* %0, i64 1
  %9 = load i8, i8* %8, align 1, !tbaa !20
  %10 = icmp eq i8 %9, 0
  br i1 %10, label %11, label %20, !llvm.loop !21

11:                                               ; preds = %20, %7
  %12 = phi i32 [ 0, %7 ], [ %29, %20 ]
  %13 = icmp slt i32 %12, 0
  br i1 %13, label %41, label %14

14:                                               ; preds = %2, %11
  %15 = phi i32 [ %12, %11 ], [ 0, %2 ]
  %16 = add nuw i32 %15, 1
  %17 = zext i32 %16 to i64
  call void @llvm.lifetime.start.p0i8(i64 1, i8* nonnull %4)
  store i8 %5, i8* %4, align 1, !tbaa !20
  %18 = call nonnull align 8 dereferenceable(8) %"class.std::basic_ostream"* @_ZSt16__ostream_insertIcSt11char_traitsIcEERSt13basic_ostreamIT_T0_ES6_PKS3_l(%"class.std::basic_ostream"* nonnull align 8 dereferenceable(8) @_ZSt4cout, i8* nonnull %4, i64 1)
  call void @llvm.lifetime.end.p0i8(i64 1, i8* nonnull %4)
  %19 = icmp eq i32 %15, 0
  br i1 %19, label %41, label %34, !llvm.loop !22

20:                                               ; preds = %7, %20
  %21 = phi i8 [ %32, %20 ], [ %9, %7 ]
  %22 = phi i64 [ %30, %20 ], [ 1, %7 ]
  %23 = phi i32 [ %29, %20 ], [ 0, %7 ]
  %24 = sext i32 %23 to i64
  %25 = getelementptr inbounds i8, i8* %0, i64 %24
  %26 = load i8, i8* %25, align 1, !tbaa !20
  %27 = icmp sgt i8 %21, %26
  %28 = trunc i64 %22 to i32
  %29 = select i1 %27, i32 %28, i32 %23
  %30 = add nuw nsw i64 %22, 1
  %31 = getelementptr inbounds i8, i8* %0, i64 %30
  %32 = load i8, i8* %31, align 1, !tbaa !20
  %33 = icmp eq i8 %32, 0
  br i1 %33, label %11, label %20, !llvm.loop !21

34:                                               ; preds = %14, %34
  %35 = phi i64 [ %39, %34 ], [ 1, %14 ]
  %36 = getelementptr inbounds i8, i8* %0, i64 %35
  %37 = load i8, i8* %36, align 1, !tbaa !20
  call void @llvm.lifetime.start.p0i8(i64 1, i8* nonnull %4)
  store i8 %37, i8* %4, align 1, !tbaa !20
  %38 = call nonnull align 8 dereferenceable(8) %"class.std::basic_ostream"* @_ZSt16__ostream_insertIcSt11char_traitsIcEERSt13basic_ostreamIT_T0_ES6_PKS3_l(%"class.std::basic_ostream"* nonnull align 8 dereferenceable(8) @_ZSt4cout, i8* nonnull %4, i64 1)
  call void @llvm.lifetime.end.p0i8(i64 1, i8* nonnull %4)
  %39 = add nuw nsw i64 %35, 1
  %40 = icmp eq i64 %39, %17
  br i1 %40, label %41, label %34, !llvm.loop !22

41:                                               ; preds = %34, %14, %11
  %42 = phi i32 [ %12, %11 ], [ %15, %14 ], [ %15, %34 ]
  %43 = icmp eq i8* %1, null
  br i1 %43, label %44, label %55

44:                                               ; preds = %41
  %45 = load i8*, i8** bitcast (%"class.std::basic_ostream"* @_ZSt4cout to i8**), align 8, !tbaa !5
  %46 = getelementptr i8, i8* %45, i64 -24
  %47 = bitcast i8* %46 to i64*
  %48 = load i64, i64* %47, align 8
  %49 = getelementptr inbounds i8, i8* bitcast (%"class.std::basic_ostream"* @_ZSt4cout to i8*), i64 %48
  %50 = bitcast i8* %49 to %"class.std::basic_ios"*
  %51 = getelementptr inbounds i8, i8* %49, i64 32
  %52 = bitcast i8* %51 to i32*
  %53 = load i32, i32* %52, align 8, !tbaa !8
  %54 = or i32 %53, 1
  call void @_ZNSt9basic_iosIcSt11char_traitsIcEE5clearESt12_Ios_Iostate(%"class.std::basic_ios"* nonnull align 8 dereferenceable(264) %50, i32 %54)
  br label %58

55:                                               ; preds = %41
  %56 = call i64 @strlen(i8* noundef nonnull dereferenceable(1) %1) #9
  %57 = call nonnull align 8 dereferenceable(8) %"class.std::basic_ostream"* @_ZSt16__ostream_insertIcSt11char_traitsIcEERSt13basic_ostreamIT_T0_ES6_PKS3_l(%"class.std::basic_ostream"* nonnull align 8 dereferenceable(8) @_ZSt4cout, i8* nonnull %1, i64 %56)
  br label %58

58:                                               ; preds = %44, %55
  %59 = add i32 %42, 1
  %60 = sext i32 %59 to i64
  %61 = getelementptr inbounds i8, i8* %0, i64 %60
  %62 = load i8, i8* %61, align 1, !tbaa !20
  %63 = icmp eq i8 %62, 0
  br i1 %63, label %72, label %64

64:                                               ; preds = %58, %64
  %65 = phi i64 [ %68, %64 ], [ %60, %58 ]
  %66 = phi i8 [ %70, %64 ], [ %62, %58 ]
  call void @llvm.lifetime.start.p0i8(i64 1, i8* nonnull %3)
  store i8 %66, i8* %3, align 1, !tbaa !20
  %67 = call nonnull align 8 dereferenceable(8) %"class.std::basic_ostream"* @_ZSt16__ostream_insertIcSt11char_traitsIcEERSt13basic_ostreamIT_T0_ES6_PKS3_l(%"class.std::basic_ostream"* nonnull align 8 dereferenceable(8) @_ZSt4cout, i8* nonnull %3, i64 1)
  call void @llvm.lifetime.end.p0i8(i64 1, i8* nonnull %3)
  %68 = add i64 %65, 1
  %69 = getelementptr inbounds i8, i8* %0, i64 %68
  %70 = load i8, i8* %69, align 1, !tbaa !20
  %71 = icmp eq i8 %70, 0
  br i1 %71, label %72, label %64, !llvm.loop !23

72:                                               ; preds = %64, %58
  %73 = load i8*, i8** bitcast (%"class.std::basic_ostream"* @_ZSt4cout to i8**), align 8, !tbaa !5
  %74 = getelementptr i8, i8* %73, i64 -24
  %75 = bitcast i8* %74 to i64*
  %76 = load i64, i64* %75, align 8
  %77 = add nsw i64 %76, 240
  %78 = getelementptr inbounds i8, i8* bitcast (%"class.std::basic_ostream"* @_ZSt4cout to i8*), i64 %77
  %79 = bitcast i8* %78 to %"class.std::ctype"**
  %80 = load %"class.std::ctype"*, %"class.std::ctype"** %79, align 8, !tbaa !24
  %81 = icmp eq %"class.std::ctype"* %80, null
  br i1 %81, label %82, label %83

82:                                               ; preds = %72
  call void @_ZSt16__throw_bad_castv() #10
  unreachable

83:                                               ; preds = %72
  %84 = getelementptr inbounds %"class.std::ctype", %"class.std::ctype"* %80, i64 0, i32 8
  %85 = load i8, i8* %84, align 8, !tbaa !27
  %86 = icmp eq i8 %85, 0
  br i1 %86, label %90, label %87

87:                                               ; preds = %83
  %88 = getelementptr inbounds %"class.std::ctype", %"class.std::ctype"* %80, i64 0, i32 9, i64 10
  %89 = load i8, i8* %88, align 1, !tbaa !20
  br label %96

90:                                               ; preds = %83
  call void @_ZNKSt5ctypeIcE13_M_widen_initEv(%"class.std::ctype"* nonnull align 8 dereferenceable(570) %80)
  %91 = bitcast %"class.std::ctype"* %80 to i8 (%"class.std::ctype"*, i8)***
  %92 = load i8 (%"class.std::ctype"*, i8)**, i8 (%"class.std::ctype"*, i8)*** %91, align 8, !tbaa !5
  %93 = getelementptr inbounds i8 (%"class.std::ctype"*, i8)*, i8 (%"class.std::ctype"*, i8)** %92, i64 6
  %94 = load i8 (%"class.std::ctype"*, i8)*, i8 (%"class.std::ctype"*, i8)** %93, align 8
  %95 = call signext i8 %94(%"class.std::ctype"* nonnull align 8 dereferenceable(570) %80, i8 signext 10)
  br label %96

96:                                               ; preds = %87, %90
  %97 = phi i8 [ %89, %87 ], [ %95, %90 ]
  %98 = call nonnull align 8 dereferenceable(8) %"class.std::basic_ostream"* @_ZNSo3putEc(%"class.std::basic_ostream"* nonnull align 8 dereferenceable(8) @_ZSt4cout, i8 signext %97)
  %99 = call nonnull align 8 dereferenceable(8) %"class.std::basic_ostream"* @_ZNSo5flushEv(%"class.std::basic_ostream"* nonnull align 8 dereferenceable(8) %98)
  ret void
}

; Function Attrs: argmemonly mustprogress nofree nosync nounwind willreturn
declare void @llvm.lifetime.end.p0i8(i64 immarg, i8* nocapture) #4

declare void @_ZSt17__istream_extractRSiPcl(%"class.std::basic_istream"* nonnull align 8 dereferenceable(16), i8*, i64) local_unnamed_addr #0

declare void @_ZNSt9basic_iosIcSt11char_traitsIcEE5clearESt12_Ios_Iostate(%"class.std::basic_ios"* nonnull align 8 dereferenceable(264), i32) local_unnamed_addr #0

declare nonnull align 8 dereferenceable(8) %"class.std::basic_ostream"* @_ZSt16__ostream_insertIcSt11char_traitsIcEERSt13basic_ostreamIT_T0_ES6_PKS3_l(%"class.std::basic_ostream"* nonnull align 8 dereferenceable(8), i8*, i64) local_unnamed_addr #0

; Function Attrs: argmemonly mustprogress nofree nounwind readonly willreturn
declare i64 @strlen(i8* nocapture) local_unnamed_addr #6

declare nonnull align 8 dereferenceable(8) %"class.std::basic_ostream"* @_ZNSo3putEc(%"class.std::basic_ostream"* nonnull align 8 dereferenceable(8), i8 signext) local_unnamed_addr #0

declare nonnull align 8 dereferenceable(8) %"class.std::basic_ostream"* @_ZNSo5flushEv(%"class.std::basic_ostream"* nonnull align 8 dereferenceable(8)) local_unnamed_addr #0

; Function Attrs: noreturn
declare void @_ZSt16__throw_bad_castv() local_unnamed_addr #7

declare void @_ZNKSt5ctypeIcE13_M_widen_initEv(%"class.std::ctype"* nonnull align 8 dereferenceable(570)) local_unnamed_addr #0

; Function Attrs: sspstrong uwtable
define internal void @_GLOBAL__sub_I_776.cpp() #8 section ".text.startup" {
  tail call void @_ZNSt8ios_base4InitC1Ev(%"class.std::ios_base::Init"* nonnull align 1 dereferenceable(1) @_ZStL8__ioinit)
  %1 = tail call i32 @__cxa_atexit(void (i8*)* bitcast (void (%"class.std::ios_base::Init"*)* @_ZNSt8ios_base4InitD1Ev to void (i8*)*), i8* getelementptr inbounds (%"class.std::ios_base::Init", %"class.std::ios_base::Init"* @_ZStL8__ioinit, i64 0, i32 0), i8* nonnull @__dso_handle) #9
  ret void
}


!llvm.module.flags = !{!0, !1, !2, !3}
!llvm.ident = !{!4}

!0 = !{i32 1, !"wchar_size", i32 4}
!1 = !{i32 7, !"PIC Level", i32 2}
!2 = !{i32 7, !"PIE Level", i32 2}
!3 = !{i32 7, !"uwtable", i32 1}
!4 = !{!"clang version 13.0.0"}
!5 = !{!6, !6, i64 0}
!6 = !{!"vtable pointer", !7, i64 0}
!7 = !{!"Simple C++ TBAA"}
!8 = !{!9, !13, i64 32}
!9 = !{!"_ZTSSt8ios_base", !10, i64 8, !10, i64 16, !12, i64 24, !13, i64 28, !13, i64 32, !14, i64 40, !15, i64 48, !11, i64 64, !16, i64 192, !14, i64 200, !17, i64 208}
!10 = !{!"long", !11, i64 0}
!11 = !{!"omnipotent char", !7, i64 0}
!12 = !{!"_ZTSSt13_Ios_Fmtflags", !11, i64 0}
!13 = !{!"_ZTSSt12_Ios_Iostate", !11, i64 0}
!14 = !{!"any pointer", !11, i64 0}
!15 = !{!"_ZTSNSt8ios_base6_WordsE", !14, i64 0, !10, i64 8}
!16 = !{!"int", !11, i64 0}
!17 = !{!"_ZTSSt6locale", !14, i64 0}
!18 = distinct !{!18, !19}
!19 = !{!"llvm.loop.mustprogress"}
!20 = !{!11, !11, i64 0}
!21 = distinct !{!21, !19}
!22 = distinct !{!22, !19}
!23 = distinct !{!23, !19}
!24 = !{!25, !14, i64 240}
!25 = !{!"_ZTSSt9basic_iosIcSt11char_traitsIcEE", !14, i64 216, !11, i64 224, !26, i64 225, !14, i64 232, !14, i64 240, !14, i64 248, !14, i64 256}
!26 = !{!"bool", !11, i64 0}
!27 = !{!28, !11, i64 56}
!28 = !{!"_ZTSSt5ctypeIcE", !14, i64 16, !26, i64 24, !14, i64 32, !14, i64 40, !14, i64 48, !11, i64 56, !11, i64 57, !11, i64 313, !11, i64 569}
